ccopy_reg
_reconstructor
p1
(cdjango.http.request
QueryDict
p2
c__builtin__
dict
p3
(dp4
Vstart_input
p5
(lp6
V2018-1-30
p7
asVstop_input
p8
(lp9
V2018-2-2
p10
asVgages_input
p11
(lp12
V9527594
p13
asVlag_start_input
p14
(lp15
V0
asVantecedent_moisture_input
p16
(lp17
V1
asVcsrfmiddlewaretoken
p18
(lp19
V4dm48vAFF2A4kGAEyNf3p57e6DgilIXqhPFgX44tmQsqwI7PmVUCepiJNSeziRvH
p20
asVanalyze
p21
(lp22
VAnalyze recessions
p23
asVrec_sense_input
p24
(lp25
V1
asVmin_length_input
p26
(lp27
V4
astRp28
(dp29
S'_encoding'
p30
Vutf-8
p31
sS'_data'
p32
(dp33
g5
g6
sg8
g9
sg11
g12
sg14
g15
sg16
g17
sg18
g19
sg21
g22
sg24
g25
sg26
g27
ssS'_mutable'
p34
I00
sb.